target datalayout = "e-m:e-p270:32:32-p271:32:32-p272:64:64-i64:64-i128:128-f80:128-n8:16:32:64-S128"
target triple = "x86_64-pc-linux-gnu"

%struct.Curl_easy = type { i32, i64, i64, ptr, %struct.Curl_llist_node, %struct.Curl_llist_node, i32, i32, %struct.Curl_message, %struct.easy_pollset, %struct.Names, ptr, ptr, ptr, %struct.SingleRequest, %struct.UserDefined, ptr, ptr, %struct.Progress, %struct.UrlState, ptr, %struct.PureInfo, %struct.curl_tlssessioninfo }
%struct.Curl_llist_node = type { ptr, ptr, ptr, ptr }
%struct.Curl_message = type { %struct.Curl_llist_node, %struct.CURLMsg }
%struct.CURLMsg = type { i32, ptr, %union.anon }
%union.anon = type { ptr }
%struct.easy_pollset = type { [5 x i32], i32, [5 x i8] }
%struct.Names = type { ptr, i32 }
%struct.SingleRequest = type <{ i64, i64, i64, i64, %struct.curltime, i32, i32, i32, i32, i64, i32, i32, i32, i32, ptr, ptr, %struct.bufq, i64, i64, ptr, ptr, %union.anon.0, ptr, i8, i32, [3 x i8] }>
%struct.curltime = type { i64, i32 }
%struct.bufq = type { ptr, ptr, ptr, ptr, i64, i64, i64, i32 }
%union.anon.0 = type { ptr }
%struct.UserDefined = type <{ ptr, ptr, ptr, ptr, ptr, ptr, i16, [6 x i8], i64, i64, i64, ptr, ptr, i64, i16, i16, [4 x i8], ptr, ptr, ptr, ptr, ptr, ptr, ptr, ptr, ptr, ptr, ptr, ptr, ptr, ptr, ptr, ptr, ptr, ptr, ptr, ptr, ptr, ptr, ptr, i32, i32, i32, i32, i32, [4 x i8], i64, i64, i64, i64, i64, i64, i64, i64, ptr, ptr, %struct.curl_mimepart, ptr, ptr, i64, i8, i8, i8, [5 x i8], %struct.ssl_config_data, %struct.ssl_config_data, ptr, i16, i8, i8, [4 x i8], %struct.ssl_general_config, i32, i32, i32, [4 x i8], ptr, ptr, i8, [7 x i8], i64, i8, i8, i8, i8, i32, ptr, ptr, ptr, i8, i8, [2 x i8], i32, [63 x ptr], [8 x ptr], i32, i32, i32, [4 x i8], ptr, ptr, ptr, ptr, ptr, i8, [3 x i8], i32, i32, i32, i64, %struct.Curl_data_priority, ptr, ptr, i64, ptr, i64, ptr, ptr, ptr, i8, [3 x i8], i32, i8, i8, i64, [6 x i8] }>
%struct.curl_mimepart = type { ptr, ptr, i32, i32, ptr, ptr, ptr, ptr, ptr, ptr, ptr, ptr, ptr, ptr, ptr, i64, %struct.mime_state, ptr, %struct.mime_encoder_state, i64 }
%struct.mime_state = type { i32, ptr, i64 }
%struct.mime_encoder_state = type { i64, i64, i64, [256 x i8] }
%struct.ssl_config_data = type { %struct.ssl_primary_config, i64, ptr, ptr, ptr, ptr, ptr, ptr, ptr, i16 }
%struct.ssl_primary_config = type { ptr, ptr, ptr, ptr, ptr, ptr, ptr, ptr, ptr, ptr, ptr, ptr, i8, i32, i8, i8 }
%struct.ssl_general_config = type { i64, i32 }
%struct.Curl_data_priority = type { ptr, ptr, i32, i8 }
%struct.Progress = type { i64, %struct.pgrs_dir, %struct.pgrs_dir, i64, i64, i32, i32, i64, i64, i64, i64, i64, i64, i64, i64, i64, %struct.curltime, %struct.curltime, %struct.curltime, %struct.curltime, [6 x i64], [6 x %struct.curltime], i32, i8 }
%struct.pgrs_dir = type { i64, i64, i64, %struct.pgrs_measure }
%struct.pgrs_measure = type { %struct.curltime, i64 }
%struct.UrlState = type { %struct.curltime, i64, i64, %struct.dynbuf, ptr, i64, ptr, i32, i32, i32, ptr, i64, i32, i64, i32, ptr, %struct.digestdata, %struct.digestdata, %struct.auth, %struct.auth, %struct.Curl_async, ptr, %struct.curltime, %struct.Curl_tree, %struct.Curl_llist, [15 x %struct.time_node], ptr, ptr, i64, i64, %struct.Curl_data_priority, ptr, ptr, ptr, %struct.urlpieces, ptr, ptr, ptr, ptr, ptr, i64, %struct.dynbuf, %struct.Curl_llist, [2 x %struct.curl_header], ptr, i32, ptr, ptr, %struct.store_netrc, %struct.dynamically_allocated_data, i8, i8, i8, i8, i32 }
%struct.digestdata = type { ptr, ptr, ptr, ptr, ptr, ptr, i32, i8, i8 }
%struct.auth = type { i64, i64, i64, i8 }
%struct.Curl_async = type { ptr, ptr, ptr, ptr, i32, i32, i8 }
%struct.Curl_tree = type { ptr, ptr, ptr, ptr, %struct.curltime, ptr }
%struct.time_node = type { %struct.Curl_llist_node, %struct.curltime, i32 }
%struct.urlpieces = type { ptr, ptr, ptr, ptr, ptr, ptr, ptr, ptr }
%struct.dynbuf = type { ptr, i64, i64, i64 }
%struct.Curl_llist = type { ptr, ptr, ptr, i64 }
%struct.curl_header = type { ptr, ptr, i64, i64, i32, ptr }
%struct.store_netrc = type { %struct.dynbuf, ptr, i8 }
%struct.dynamically_allocated_data = type { ptr, ptr, ptr, ptr, ptr, ptr, ptr, ptr, ptr, ptr, ptr, ptr, ptr }
%struct.PureInfo = type { i32, i32, i32, i64, i64, i64, i64, i64, ptr, ptr, i64, i32, %struct.ip_quadruple, i32, ptr, i32, %struct.curl_certinfo, i32, i8 }
%struct.ip_quadruple = type { [46 x i8], [46 x i8], i32, i32 }
%struct.curl_certinfo = type { i32, ptr }
%struct.curl_tlssessioninfo = type { i32, ptr }
%struct.connectdata = type { %struct.Curl_llist_node, ptr, ptr, i64, ptr, i64, ptr, ptr, %struct.hostname, ptr, ptr, %struct.hostname, %struct.proxy_info, %struct.proxy_info, %struct.ip_quadruple, %struct.ip_quadruple, ptr, ptr, ptr, ptr, ptr, %struct.curltime, %struct.curltime, %struct.curltime, [2 x i32], [2 x ptr], [2 x ptr], [2 x ptr], %struct.anon, %struct.easy_pollset, %struct.ssl_primary_config, %struct.ssl_primary_config, %struct.ConnectBits, ptr, ptr, %struct.curltime, i32, i32, %struct.Curl_llist, i32, i32, %struct.ntlmdata, %struct.ntlmdata, %union.anon.1, ptr, i16, i32, i32, i32, i32, i16, i16, i8, i8, i8, i8, i8, i8, i8 }
%struct.hostname = type { ptr, ptr, ptr, ptr }
%struct.proxy_info = type { %struct.hostname, i32, i8, ptr, ptr }
%struct.anon = type { [2 x %struct.curltime], i32 }
%struct.ConnectBits = type { i64 }
%struct.ntlmdata = type { i32, [8 x i8], i32, ptr }
%union.anon.1 = type { %struct.ftp_conn }
%struct.ftp_conn = type { %struct.pingpong, ptr, ptr, ptr, ptr, ptr, ptr, ptr, i8, i64, ptr, i64, i32, i32, i32, i32, i32, i16, i8, i8, i8, i8, i8 }
%struct.pingpong = type { i64, i8, ptr, i64, i64, %struct.curltime, i64, %struct.dynbuf, %struct.dynbuf, i64, i64, ptr, ptr }

; Function Attrs: nounwind uwtable
define internal void @xfer_setup(ptr noundef %0, i32 noundef %1, i64 noundef %2, i1 noundef zeroext %3, i32 noundef %4, i1 noundef zeroext %5, i1 noundef zeroext %6) #0 {
  %8 = alloca ptr, align 8
  %9 = alloca i32, align 4
  %10 = alloca i64, align 8
  %11 = alloca i8, align 1
  %12 = alloca i32, align 4
  %13 = alloca i8, align 1
  %14 = alloca i8, align 1
  %15 = alloca ptr, align 8
  %16 = alloca ptr, align 8
  %17 = alloca i8, align 1
  store ptr %0, ptr %8, align 8, !tbaa !4
  store i32 %1, ptr %9, align 4, !tbaa !104
  store i64 %2, ptr %10, align 8, !tbaa !11
  %18 = zext i1 %3 to i8
  store i8 %18, ptr %11, align 1, !tbaa !118
  store i32 %4, ptr %12, align 4, !tbaa !104
  %19 = zext i1 %5 to i8
  store i8 %19, ptr %13, align 1, !tbaa !118
  %20 = zext i1 %6 to i8
  store i8 %20, ptr %14, align 1, !tbaa !118
  call void @llvm.lifetime.start.p0(i64 8, ptr %15) #4
  %21 = load ptr, ptr %8, align 8, !tbaa !4
  %22 = getelementptr inbounds nuw %struct.Curl_easy, ptr %21, i32 0, i32 14
  store ptr %22, ptr %15, align 8, !tbaa !107
  call void @llvm.lifetime.start.p0(i64 8, ptr %16) #4
  %23 = load ptr, ptr %8, align 8, !tbaa !4
  %24 = getelementptr inbounds nuw %struct.Curl_easy, ptr %23, i32 0, i32 3
  %25 = load ptr, ptr %24, align 8, !tbaa !94
  store ptr %25, ptr %16, align 8, !tbaa !117
  call void @llvm.lifetime.start.p0(i64 1, ptr %17) #4
  %26 = load ptr, ptr %8, align 8, !tbaa !4
  %27 = call zeroext i1 @Curl_req_want_send(ptr noundef %26)
  %28 = zext i1 %27 to i8
  store i8 %28, ptr %17, align 1, !tbaa !118
  br label %29

29:                                               ; preds = %7
  br label %30

30:                                               ; preds = %29
  br label %31

31:                                               ; preds = %30
  br label %32

32:                                               ; preds = %31
  br label %33

33:                                               ; preds = %32
  br label %34

34:                                               ; preds = %33
  br label %35

35:                                               ; preds = %34
  br label %36

36:                                               ; preds = %35
  br label %37

37:                                               ; preds = %36
  br label %38

38:                                               ; preds = %37
  br label %39

39:                                               ; preds = %38
  br label %40

40:                                               ; preds = %39
  %41 = load ptr, ptr %16, align 8, !tbaa !117
  %42 = getelementptr inbounds nuw %struct.connectdata, ptr %41, i32 0, i32 32
  %43 = load i64, ptr %42, align 8
  %44 = lshr i64 %43, 22
  %45 = and i64 %44, 1
  %46 = trunc i64 %45 to i32
  %47 = icmp ne i32 %46, 0
  br i1 %47, label %57, label %48

48:                                               ; preds = %40
  %49 = load ptr, ptr %16, align 8, !tbaa !117
  %50 = getelementptr inbounds nuw %struct.connectdata, ptr %49, i32 0, i32 56
  %51 = load i8, ptr %50, align 4, !tbaa !171
  %52 = zext i8 %51 to i32
  %53 = icmp sge i32 %52, 20
  br i1 %53, label %57, label %54

54:                                               ; preds = %48
  %55 = load i8, ptr %17, align 1, !tbaa !118, !range !120, !noundef !121
  %56 = trunc i8 %55 to i1
  br i1 %56, label %57, label %93

57:                                               ; preds = %54, %48, %40
  %58 = load i32, ptr %9, align 4, !tbaa !104
  %59 = icmp eq i32 %58, -1
  br i1 %59, label %60, label %73

60:                                               ; preds = %57
  %61 = load i32, ptr %12, align 4, !tbaa !104
  %62 = icmp eq i32 %61, -1
  br i1 %62, label %63, label %64

63:                                               ; preds = %60
  br label %71

64:                                               ; preds = %60
  %65 = load ptr, ptr %16, align 8, !tbaa !117
  %66 = getelementptr inbounds nuw %struct.connectdata, ptr %65, i32 0, i32 24
  %67 = load i32, ptr %12, align 4, !tbaa !104
  %68 = sext i32 %67 to i64
  %69 = getelementptr inbounds [2 x i32], ptr %66, i64 0, i64 %68
  %70 = load i32, ptr %69, align 4, !tbaa !104
  br label %71

71:                                               ; preds = %64, %63
  %72 = phi i32 [ -1, %63 ], [ %70, %64 ]
  br label %80

73:                                               ; preds = %57
  %74 = load ptr, ptr %16, align 8, !tbaa !117
  %75 = getelementptr inbounds nuw %struct.connectdata, ptr %74, i32 0, i32 24
  %76 = load i32, ptr %9, align 4, !tbaa !104
  %77 = sext i32 %76 to i64
  %78 = getelementptr inbounds [2 x i32], ptr %75, i64 0, i64 %77
  %79 = load i32, ptr %78, align 4, !tbaa !104
  br label %80

80:                                               ; preds = %73, %71
  %81 = phi i32 [ %72, %71 ], [ %79, %73 ]
  %82 = load ptr, ptr %16, align 8, !tbaa !117
  %83 = getelementptr inbounds nuw %struct.connectdata, ptr %82, i32 0, i32 36
  store i32 %81, ptr %83, align 8, !tbaa !172
  %84 = load ptr, ptr %16, align 8, !tbaa !117
  %85 = getelementptr inbounds nuw %struct.connectdata, ptr %84, i32 0, i32 36
  %86 = load i32, ptr %85, align 8, !tbaa !172
  %87 = load ptr, ptr %16, align 8, !tbaa !117
  %88 = getelementptr inbounds nuw %struct.connectdata, ptr %87, i32 0, i32 37
  store i32 %86, ptr %88, align 4, !tbaa !95
  %89 = load i8, ptr %17, align 1, !tbaa !118, !range !120, !noundef !121
  %90 = trunc i8 %89 to i1
  br i1 %90, label %91, label %92

91:                                               ; preds = %80
  store i32 0, ptr %12, align 4, !tbaa !104
  br label %92

92:                                               ; preds = %91, %80
  br label %122

93:                                               ; preds = %54
  %94 = load i32, ptr %9, align 4, !tbaa !104
  %95 = icmp eq i32 %94, -1
  br i1 %95, label %96, label %97

96:                                               ; preds = %93
  br label %104

97:                                               ; preds = %93
  %98 = load ptr, ptr %16, align 8, !tbaa !117
  %99 = getelementptr inbounds nuw %struct.connectdata, ptr %98, i32 0, i32 24
  %100 = load i32, ptr %9, align 4, !tbaa !104
  %101 = sext i32 %100 to i64
  %102 = getelementptr inbounds [2 x i32], ptr %99, i64 0, i64 %101
  %103 = load i32, ptr %102, align 4, !tbaa !104
  br label %104

104:                                              ; preds = %97, %96
  %105 = phi i32 [ -1, %96 ], [ %103, %97 ]
  %106 = load ptr, ptr %16, align 8, !tbaa !117
  %107 = getelementptr inbounds nuw %struct.connectdata, ptr %106, i32 0, i32 36
  store i32 %105, ptr %107, align 8, !tbaa !172
  %108 = load i32, ptr %12, align 4, !tbaa !104
  %109 = icmp eq i32 %108, -1
  br i1 %109, label %110, label %111

110:                                              ; preds = %104
  br label %118

111:                                              ; preds = %104
  %112 = load ptr, ptr %16, align 8, !tbaa !117
  %113 = getelementptr inbounds nuw %struct.connectdata, ptr %112, i32 0, i32 24
  %114 = load i32, ptr %12, align 4, !tbaa !104
  %115 = sext i32 %114 to i64
  %116 = getelementptr inbounds [2 x i32], ptr %113, i64 0, i64 %115
  %117 = load i32, ptr %116, align 4, !tbaa !104
  br label %118

118:                                              ; preds = %111, %110
  %119 = phi i32 [ -1, %110 ], [ %117, %111 ]
  %120 = load ptr, ptr %16, align 8, !tbaa !117
  %121 = getelementptr inbounds nuw %struct.connectdata, ptr %120, i32 0, i32 37
  store i32 %119, ptr %121, align 4, !tbaa !95
  br label %122

122:                                              ; preds = %118, %92
  %123 = load i8, ptr %11, align 1, !tbaa !118, !range !120, !noundef !121
  %124 = trunc i8 %123 to i1
  %125 = zext i1 %124 to i32
  %126 = load ptr, ptr %15, align 8, !tbaa !107
  %127 = getelementptr inbounds nuw %struct.SingleRequest, ptr %126, i32 0, i32 24
  %128 = load i32, ptr %127, align 1
  %129 = and i32 %125, 1
  %130 = shl i32 %129, 16
  %131 = and i32 %128, -65537
  %132 = or i32 %131, %130
  store i32 %132, ptr %127, align 1
  %133 = load i64, ptr %10, align 8, !tbaa !11
  %134 = load ptr, ptr %15, align 8, !tbaa !107
  %135 = getelementptr inbounds nuw %struct.SingleRequest, ptr %134, i32 0, i32 0
  store i64 %133, ptr %135, align 8, !tbaa !112
  %136 = load i8, ptr %13, align 1, !tbaa !118, !range !120, !noundef !121
  %137 = trunc i8 %136 to i1
  %138 = zext i1 %137 to i32
  %139 = load ptr, ptr %15, align 8, !tbaa !107
  %140 = getelementptr inbounds nuw %struct.SingleRequest, ptr %139, i32 0, i32 24
  %141 = load i32, ptr %140, align 1
  %142 = and i32 %138, 1
  %143 = shl i32 %142, 20
  %144 = and i32 %141, -1048577
  %145 = or i32 %144, %143
  store i32 %145, ptr %140, align 1
  %146 = load i8, ptr %14, align 1, !tbaa !118, !range !120, !noundef !121
  %147 = trunc i8 %146 to i1
  %148 = zext i1 %147 to i32
  %149 = load ptr, ptr %15, align 8, !tbaa !107
  %150 = getelementptr inbounds nuw %struct.SingleRequest, ptr %149, i32 0, i32 24
  %151 = load i32, ptr %150, align 1
  %152 = and i32 %148, 1
  %153 = shl i32 %152, 21
  %154 = and i32 %151, -2097153
  %155 = or i32 %154, %153
  store i32 %155, ptr %150, align 1
  %156 = load ptr, ptr %15, align 8, !tbaa !107
  %157 = getelementptr inbounds nuw %struct.SingleRequest, ptr %156, i32 0, i32 24
  %158 = load i32, ptr %157, align 1
  %159 = lshr i32 %158, 16
  %160 = and i32 %159, 1
  %161 = icmp ne i32 %160, 0
  br i1 %161, label %174, label %162

162:                                              ; preds = %122
  %163 = load ptr, ptr %15, align 8, !tbaa !107
  %164 = getelementptr inbounds nuw %struct.SingleRequest, ptr %163, i32 0, i32 24
  %165 = load i32, ptr %164, align 1
  %166 = and i32 %165, -2
  %167 = or i32 %166, 0
  store i32 %167, ptr %164, align 1
  %168 = load i64, ptr %10, align 8, !tbaa !11
  %169 = icmp sgt i64 %168, 0
  br i1 %169, label %170, label %173

170:                                              ; preds = %162
  %171 = load ptr, ptr %8, align 8, !tbaa !4
  %172 = load i64, ptr %10, align 8, !tbaa !11
  call void @Curl_pgrsSetDownloadSize(ptr noundef %171, i64 noundef %172)
  br label %173

173:                                              ; preds = %170, %162
  br label %174

174:                                              ; preds = %173, %122
  %175 = load ptr, ptr %15, align 8, !tbaa !107
  %176 = getelementptr inbounds nuw %struct.SingleRequest, ptr %175, i32 0, i32 24
  %177 = load i32, ptr %176, align 1
  %178 = lshr i32 %177, 16
  %179 = and i32 %178, 1
  %180 = icmp ne i32 %179, 0
  br i1 %180, label %189, label %181

181:                                              ; preds = %174
  %182 = load ptr, ptr %8, align 8, !tbaa !4
  %183 = getelementptr inbounds nuw %struct.Curl_easy, ptr %182, i32 0, i32 14
  %184 = getelementptr inbounds nuw %struct.SingleRequest, ptr %183, i32 0, i32 24
  %185 = load i32, ptr %184, align 1
  %186 = lshr i32 %185, 17
  %187 = and i32 %186, 1
  %188 = icmp ne i32 %187, 0
  br i1 %188, label %206, label %189

189:                                              ; preds = %181, %174
  %190 = load i32, ptr %9, align 4, !tbaa !104
  %191 = icmp ne i32 %190, -1
  br i1 %191, label %192, label %197

192:                                              ; preds = %189
  %193 = load ptr, ptr %15, align 8, !tbaa !107
  %194 = getelementptr inbounds nuw %struct.SingleRequest, ptr %193, i32 0, i32 12
  %195 = load i32, ptr %194, align 8, !tbaa !110
  %196 = or i32 %195, 1
  store i32 %196, ptr %194, align 8, !tbaa !110
  br label %197

197:                                              ; preds = %192, %189
  %198 = load i32, ptr %12, align 4, !tbaa !104
  %199 = icmp ne i32 %198, -1
  br i1 %199, label %200, label %205

200:                                              ; preds = %197
  %201 = load ptr, ptr %15, align 8, !tbaa !107
  %202 = getelementptr inbounds nuw %struct.SingleRequest, ptr %201, i32 0, i32 12
  %203 = load i32, ptr %202, align 8, !tbaa !110
  %204 = or i32 %203, 2
  store i32 %204, ptr %202, align 8, !tbaa !110
  br label %205

205:                                              ; preds = %200, %197
  br label %206

206:                                              ; preds = %205, %181
  call void @llvm.lifetime.end.p0(i64 1, ptr %17) #4
  call void @llvm.lifetime.end.p0(i64 8, ptr %16) #4
  call void @llvm.lifetime.end.p0(i64 8, ptr %15) #4
  ret void
}