; Function Attrs: nounwind uwtable
define internal fastcc void @xfer_setup(ptr noundef %0, i32 noundef range(i32 -1, 2) %1, i64 noundef %2, i1 noundef zeroext %3, i32 noundef range(i32 -1, 2) %4, i1 noundef zeroext %5, i1 noundef zeroext %6) unnamed_addr #0 {
  %8 = getelementptr inbounds nuw i8, ptr %0, i64 232
  %9 = getelementptr inbounds nuw i8, ptr %0, i64 24
  %10 = load ptr, ptr %9, align 8, !tbaa !87
  %11 = tail call zeroext i1 @Curl_req_want_send(ptr noundef %0) #6
  %12 = getelementptr inbounds nuw i8, ptr %10, i64 920
  %13 = load i64, ptr %12, align 8
  %14 = and i64 %13, 4194304
  %.not = icmp eq i64 %14, 0
  br i1 %.not, label %15, label %19

15:                                               ; preds = %7
  %16 = getelementptr inbounds nuw i8, ptr %10, i64 1372
  %17 = load i8, ptr %16, align 4, !tbaa !160
  %18 = icmp ugt i8 %17, 19
  %brmerge = select i1 %18, i1 true, i1 %11
  br i1 %brmerge, label %19, label %31

19:                                               ; preds = %15, %7
  %20 = icmp eq i32 %1, -1
  br i1 %20, label %21, label %.sink.split

21:                                               ; preds = %19
  %22 = icmp eq i32 %4, -1
  br i1 %22, label %27, label %.sink.split

.sink.split:                                      ; preds = %19, %21
  %.sink = phi i32 [ %4, %21 ], [ %1, %19 ]
  %23 = getelementptr inbounds nuw i8, ptr %10, i64 568
  %24 = zext nneg i32 %.sink to i64
  %25 = getelementptr inbounds nuw [2 x i32], ptr %23, i64 0, i64 %24
  %26 = load i32, ptr %25, align 4, !tbaa !97
  br label %27

27:                                               ; preds = %.sink.split, %21
  %28 = phi i32 [ -1, %21 ], [ %26, %.sink.split ]
  %29 = getelementptr inbounds nuw i8, ptr %10, i64 960
  store i32 %28, ptr %29, align 8, !tbaa !106
  %30 = getelementptr inbounds nuw i8, ptr %10, i64 964
  store i32 %28, ptr %30, align 4, !tbaa !88
  %spec.select = select i1 %11, i32 0, i32 %4
  br label %50

31:                                               ; preds = %15
  %32 = icmp eq i32 %1, -1
  br i1 %32, label %38, label %33

33:                                               ; preds = %31
  %34 = getelementptr inbounds nuw i8, ptr %10, i64 568
  %35 = zext nneg i32 %1 to i64
  %36 = getelementptr inbounds nuw [2 x i32], ptr %34, i64 0, i64 %35
  %37 = load i32, ptr %36, align 4, !tbaa !97
  br label %38

38:                                               ; preds = %31, %33
  %39 = phi i32 [ %37, %33 ], [ -1, %31 ]
  %40 = getelementptr inbounds nuw i8, ptr %10, i64 960
  store i32 %39, ptr %40, align 8, !tbaa !106
  %41 = icmp eq i32 %4, -1
  br i1 %41, label %47, label %42

42:                                               ; preds = %38
  %43 = getelementptr inbounds nuw i8, ptr %10, i64 568
  %44 = zext nneg i32 %4 to i64
  %45 = getelementptr inbounds nuw [2 x i32], ptr %43, i64 0, i64 %44
  %46 = load i32, ptr %45, align 4, !tbaa !97
  br label %47

47:                                               ; preds = %38, %42
  %48 = phi i32 [ %46, %42 ], [ -1, %38 ]
  %49 = getelementptr inbounds nuw i8, ptr %10, i64 964
  store i32 %48, ptr %49, align 4, !tbaa !88
  br label %50

50:                                               ; preds = %27, %47
  %.0 = phi i32 [ %4, %47 ], [ %spec.select, %27 ]
  %51 = getelementptr inbounds nuw i8, ptr %0, i64 449
  %52 = load i32, ptr %51, align 1
  %53 = select i1 %3, i32 65536, i32 0
  %54 = and i32 %52, -3211265
  %55 = or disjoint i32 %54, %53
  store i64 %2, ptr %8, align 8, !tbaa !117
  %56 = select i1 %5, i32 1048576, i32 0
  %57 = select i1 %6, i32 2097152, i32 0
  %58 = or disjoint i32 %57, %56
  %59 = or disjoint i32 %58, %55
  store i32 %59, ptr %51, align 1
  br i1 %3, label %64, label %60

60:                                               ; preds = %50
  %61 = and i32 %59, -2
  store i32 %61, ptr %51, align 1
  %62 = icmp sgt i64 %2, 0
  br i1 %62, label %63, label %64

63:                                               ; preds = %60
  tail call void @Curl_pgrsSetDownloadSize(ptr noundef nonnull %0, i64 noundef %2) #6
  %.pre = load i32, ptr %51, align 1
  br label %64

64:                                               ; preds = %60, %63, %50
  %65 = phi i32 [ %61, %60 ], [ %.pre, %63 ], [ %59, %50 ]
  %66 = and i32 %65, 196608
  %or.cond.not = icmp eq i32 %66, 131072
  br i1 %or.cond.not, label %77, label %67

67:                                               ; preds = %64
  %.not49 = icmp eq i32 %1, -1
  br i1 %.not49, label %72, label %68

68:                                               ; preds = %67
  %69 = getelementptr inbounds nuw i8, ptr %0, i64 312
  %70 = load i32, ptr %69, align 8, !tbaa !99
  %71 = or i32 %70, 1
  store i32 %71, ptr %69, align 8, !tbaa !99
  br label %72

72:                                               ; preds = %68, %67
  %.not50 = icmp eq i32 %.0, -1
  br i1 %.not50, label %77, label %73

73:                                               ; preds = %72
  %74 = getelementptr inbounds nuw i8, ptr %0, i64 312
  %75 = load i32, ptr %74, align 8, !tbaa !99
  %76 = or i32 %75, 2
  store i32 %76, ptr %74, align 8, !tbaa !99
  br label %77

77:                                               ; preds = %64, %72, %73
  ret void
}